; Function Attrs: nofree norecurse nosync nounwind memory(read, inaccessiblemem: none) uwtable
define ptr @Abc_NtkPartStitchFindRepr_rec(ptr noundef readonly captures(none) %0, ptr noundef readonly %1) local_unnamed_addr #7 {
  %3 = getelementptr i8, ptr %0, i64 8
  %.val = load ptr, ptr %3, align 8
  br label %tailrecurse

tailrecurse:                                      ; preds = %tailrecurse, %2
  %.tr10 = phi ptr [ %1, %2 ], [ %8, %tailrecurse ]
  %4 = getelementptr inbounds nuw i8, ptr %.tr10, i64 16
  %5 = load i32, ptr %4, align 8
  %6 = sext i32 %5 to i64
  %7 = getelementptr inbounds ptr, ptr %.val, i64 %6
  %8 = load ptr, ptr %7, align 8
  %9 = icmp eq ptr %8, null
  %10 = icmp eq ptr %8, %.tr10
  %or.cond = or i1 %9, %10
  br i1 %or.cond, label %11, label %tailrecurse

11:                                               ; preds = %tailrecurse
  ret ptr %.tr10
}